target datalayout = "e-m:e-p270:32:32-p271:32:32-p272:64:64-i64:64-i128:128-f80:128-n8:16:32:64-S128"
target triple = "x86_64-pc-linux-gnu"

%struct.expert_field = type { i32, i32 }

@hf_isakmp_typepayload = internal global i32 0, align 4
@hf_isakmp_nextpayload = internal global i32 0, align 4
@hf_isakmp_criticalpayload = internal global i32 0, align 4
@hf_isakmp_reserved7 = internal global i32 0, align 4
@hf_isakmp_reserved = internal global i32 0, align 4
@hf_isakmp_payloadlen = internal global i32 0, align 4
@ett_isakmp_payload = internal global i32 0, align 4
@ei_isakmp_payload_bad_length = internal global %struct.expert_field zeroinitializer, align 4
@.str.816 = private unnamed_addr constant [46 x i8] c"Not enough room in payload for all transforms\00", align 1

; Function Attrs: null_pointer_is_valid sspstrong uwtable
define internal ptr @dissect_payload_header(ptr noundef %0, ptr noundef %1, i32 noundef %2, i32 noundef %3, i32 noundef %4, i8 noundef zeroext %5, ptr noundef %6, ptr noundef %7, ptr noundef %8) #0 {
  %10 = alloca ptr, align 8
  %11 = alloca ptr, align 8
  %12 = alloca ptr, align 8
  %13 = alloca i32, align 4
  %14 = alloca i32, align 4
  %15 = alloca i32, align 4
  %16 = alloca i8, align 1
  %17 = alloca ptr, align 8
  %18 = alloca ptr, align 8
  %19 = alloca ptr, align 8
  %20 = alloca i8, align 1
  %21 = alloca i16, align 2
  %22 = alloca ptr, align 8
  %23 = alloca ptr, align 8
  %24 = alloca i32, align 4
  store ptr %0, ptr %11, align 8
  store ptr %1, ptr %12, align 8
  store i32 %2, ptr %13, align 4
  store i32 %3, ptr %14, align 4
  store i32 %4, ptr %15, align 4
  store i8 %5, ptr %16, align 1
  store ptr %6, ptr %17, align 8
  store ptr %7, ptr %18, align 8
  store ptr %8, ptr %19, align 8
  call void @llvm.lifetime.start.p0(i64 1, ptr %20) #16
  call void @llvm.lifetime.start.p0(i64 2, ptr %21) #16
  call void @llvm.lifetime.start.p0(i64 8, ptr %22) #16
  call void @llvm.lifetime.start.p0(i64 8, ptr %23) #16
  %25 = load i32, ptr %14, align 4
  %26 = icmp slt i32 %25, 4
  br i1 %26, label %27, label %36

27:                                               ; preds = %9
  %28 = load ptr, ptr %19, align 8
  %29 = load ptr, ptr %12, align 8
  %30 = load ptr, ptr %11, align 8
  %31 = load i32, ptr %13, align 4
  %32 = load i32, ptr %14, align 4
  %33 = call ptr (ptr, ptr, ptr, ptr, i32, i32, ptr, ...) @proto_tree_add_expert_format(ptr noundef %28, ptr noundef %29, ptr noundef @ei_isakmp_payload_bad_length, ptr noundef %30, i32 noundef %31, i32 noundef %32, ptr noundef @.str.816)
  %34 = load ptr, ptr %17, align 8
  store i8 0, ptr %34, align 1
  %35 = load ptr, ptr %18, align 8
  store i16 0, ptr %35, align 2
  store ptr null, ptr %10, align 8
  store i32 1, ptr %24, align 4
  br label %107

36:                                               ; preds = %9
  %37 = load ptr, ptr %11, align 8
  %38 = load i32, ptr %13, align 4
  %39 = call zeroext i8 @tvb_get_uint8(ptr noundef %37, i32 noundef %38)
  store i8 %39, ptr %20, align 1
  %40 = load ptr, ptr %11, align 8
  %41 = load i32, ptr %13, align 4
  %42 = add i32 %41, 2
  %43 = call zeroext i16 @tvb_get_ntohs(ptr noundef %40, i32 noundef %42)
  store i16 %43, ptr %21, align 2
  %44 = load ptr, ptr %19, align 8
  %45 = load i32, ptr @hf_isakmp_typepayload, align 4
  %46 = load ptr, ptr %11, align 8
  %47 = load i32, ptr %13, align 4
  %48 = load i16, ptr %21, align 2
  %49 = zext i16 %48 to i32
  %50 = load i8, ptr %16, align 1
  %51 = zext i8 %50 to i32
  %52 = call ptr @proto_tree_add_uint(ptr noundef %44, i32 noundef %45, ptr noundef %46, i32 noundef %47, i32 noundef %49, i32 noundef %51)
  store ptr %52, ptr %22, align 8
  %53 = load ptr, ptr %22, align 8
  %54 = load i32, ptr @ett_isakmp_payload, align 4
  %55 = call ptr @proto_item_add_subtree(ptr noundef %53, i32 noundef %54)
  store ptr %55, ptr %23, align 8
  %56 = load ptr, ptr %23, align 8
  %57 = load i32, ptr @hf_isakmp_nextpayload, align 4
  %58 = load ptr, ptr %11, align 8
  %59 = load i32, ptr %13, align 4
  %60 = call ptr @proto_tree_add_item(ptr noundef %56, i32 noundef %57, ptr noundef %58, i32 noundef %59, i32 noundef 1, i32 noundef 0)
  %61 = load i32, ptr %15, align 4
  %62 = icmp eq i32 %61, 1
  br i1 %62, label %71, label %63

63:                                               ; preds = %36
  %64 = load i8, ptr %16, align 1
  %65 = zext i8 %64 to i32
  %66 = icmp eq i32 %65, 2
  br i1 %66, label %71, label %67

67:                                               ; preds = %63
  %68 = load i8, ptr %16, align 1
  %69 = zext i8 %68 to i32
  %70 = icmp eq i32 %69, 3
  br i1 %70, label %71, label %78

71:                                               ; preds = %67, %63, %36
  %72 = load ptr, ptr %23, align 8
  %73 = load i32, ptr @hf_isakmp_reserved, align 4
  %74 = load ptr, ptr %11, align 8
  %75 = load i32, ptr %13, align 4
  %76 = add i32 %75, 1
  %77 = call ptr @proto_tree_add_item(ptr noundef %72, i32 noundef %73, ptr noundef %74, i32 noundef %76, i32 noundef 1, i32 noundef 0)
  br label %95

78:                                               ; preds = %67
  %79 = load i32, ptr %15, align 4
  %80 = icmp eq i32 %79, 2
  br i1 %80, label %81, label %94

81:                                               ; preds = %78
  %82 = load ptr, ptr %23, align 8
  %83 = load i32, ptr @hf_isakmp_criticalpayload, align 4
  %84 = load ptr, ptr %11, align 8
  %85 = load i32, ptr %13, align 4
  %86 = add i32 %85, 1
  %87 = call ptr @proto_tree_add_item(ptr noundef %82, i32 noundef %83, ptr noundef %84, i32 noundef %86, i32 noundef 1, i32 noundef 0)
  %88 = load ptr, ptr %23, align 8
  %89 = load i32, ptr @hf_isakmp_reserved7, align 4
  %90 = load ptr, ptr %11, align 8
  %91 = load i32, ptr %13, align 4
  %92 = add i32 %91, 1
  %93 = call ptr @proto_tree_add_item(ptr noundef %88, i32 noundef %89, ptr noundef %90, i32 noundef %92, i32 noundef 1, i32 noundef 0)
  br label %94

94:                                               ; preds = %81, %78
  br label %95

95:                                               ; preds = %94, %71
  %96 = load ptr, ptr %23, align 8
  %97 = load i32, ptr @hf_isakmp_payloadlen, align 4
  %98 = load ptr, ptr %11, align 8
  %99 = load i32, ptr %13, align 4
  %100 = add i32 %99, 2
  %101 = call ptr @proto_tree_add_item(ptr noundef %96, i32 noundef %97, ptr noundef %98, i32 noundef %100, i32 noundef 2, i32 noundef 0)
  %102 = load i8, ptr %20, align 1
  %103 = load ptr, ptr %17, align 8
  store i8 %102, ptr %103, align 1
  %104 = load i16, ptr %21, align 2
  %105 = load ptr, ptr %18, align 8
  store i16 %104, ptr %105, align 2
  %106 = load ptr, ptr %23, align 8
  store ptr %106, ptr %10, align 8
  store i32 1, ptr %24, align 4
  br label %107

107:                                              ; preds = %95, %27
  call void @llvm.lifetime.end.p0(i64 8, ptr %23) #16
  call void @llvm.lifetime.end.p0(i64 8, ptr %22) #16
  call void @llvm.lifetime.end.p0(i64 2, ptr %21) #16
  call void @llvm.lifetime.end.p0(i64 1, ptr %20) #16
  %108 = load ptr, ptr %10, align 8
  ret ptr %108
}