; Function Attrs: null_pointer_is_valid sspstrong uwtable
define internal fastcc noundef ptr @dissect_payload_header(ptr noundef %0, ptr noundef %1, i32 noundef %2, i32 noundef range(i32 -65535, -2147483648) %3, i32 noundef %4, i8 noundef zeroext %5, ptr noundef writeonly captures(none) initializes((0, 1)) %6, ptr noundef writeonly captures(none) initializes((0, 2)) %7, ptr noundef %8) unnamed_addr #0 {
  %10 = icmp slt i32 %3, 4
  br i1 %10, label %11, label %13

11:                                               ; preds = %9
  %12 = tail call ptr (ptr, ptr, ptr, ptr, i32, i32, ptr, ...) @proto_tree_add_expert_format(ptr noundef %8, ptr noundef %1, ptr noundef nonnull @ei_isakmp_payload_bad_length, ptr noundef %0, i32 noundef %2, i32 noundef %3, ptr noundef nonnull @.str.816)
  br label %43

13:                                               ; preds = %9
  %14 = tail call zeroext i8 @tvb_get_uint8(ptr noundef %0, i32 noundef %2)
  %15 = add i32 %2, 2
  %16 = tail call zeroext i16 @tvb_get_ntohs(ptr noundef %0, i32 noundef %15)
  %17 = load i32, ptr @hf_isakmp_typepayload, align 4
  %18 = zext i16 %16 to i32
  %19 = zext i8 %5 to i32
  %20 = tail call ptr @proto_tree_add_uint(ptr noundef %8, i32 noundef %17, ptr noundef %0, i32 noundef %2, i32 noundef %18, i32 noundef %19)
  %21 = load i32, ptr @ett_isakmp_payload, align 4
  %22 = tail call ptr @proto_item_add_subtree(ptr noundef %20, i32 noundef %21)
  %23 = load i32, ptr @hf_isakmp_nextpayload, align 4
  %24 = tail call ptr @proto_tree_add_item(ptr noundef %22, i32 noundef %23, ptr noundef %0, i32 noundef %2, i32 noundef 1, i32 noundef 0)
  %25 = icmp eq i32 %4, 1
  %26 = and i8 %5, -2
  %27 = icmp eq i8 %26, 2
  %or.cond5 = or i1 %25, %27
  br i1 %or.cond5, label %28, label %32

28:                                               ; preds = %13
  %29 = load i32, ptr @hf_isakmp_reserved, align 4
  %30 = add i32 %2, 1
  %31 = tail call ptr @proto_tree_add_item(ptr noundef %22, i32 noundef %29, ptr noundef %0, i32 noundef %30, i32 noundef 1, i32 noundef 0)
  br label %40

32:                                               ; preds = %13
  %33 = icmp eq i32 %4, 2
  br i1 %33, label %34, label %40

34:                                               ; preds = %32
  %35 = load i32, ptr @hf_isakmp_criticalpayload, align 4
  %36 = add i32 %2, 1
  %37 = tail call ptr @proto_tree_add_item(ptr noundef %22, i32 noundef %35, ptr noundef %0, i32 noundef %36, i32 noundef 1, i32 noundef 0)
  %38 = load i32, ptr @hf_isakmp_reserved7, align 4
  %39 = tail call ptr @proto_tree_add_item(ptr noundef %22, i32 noundef %38, ptr noundef %0, i32 noundef %36, i32 noundef 1, i32 noundef 0)
  br label %40

40:                                               ; preds = %32, %34, %28
  %41 = load i32, ptr @hf_isakmp_payloadlen, align 4
  %42 = tail call ptr @proto_tree_add_item(ptr noundef %22, i32 noundef %41, ptr noundef %0, i32 noundef %15, i32 noundef 2, i32 noundef 0)
  br label %43

43:                                               ; preds = %40, %11
  %storemerge49 = phi i8 [ %14, %40 ], [ 0, %11 ]
  %storemerge = phi i16 [ %16, %40 ], [ 0, %11 ]
  %.0 = phi ptr [ %22, %40 ], [ null, %11 ]
  store i8 %storemerge49, ptr %6, align 1
  store i16 %storemerge, ptr %7, align 2
  ret ptr %.0
}